target datalayout = "e-m:e-p270:32:32-p271:32:32-p272:64:64-i64:64-i128:128-f80:128-n8:16:32:64-S128"
target triple = "x86_64-pc-linux-gnu"

%class.VM_SafepointALot = type { %class.VM_EmptyOperation }
%class.VM_EmptyOperation = type { %class.VM_Operation }
%class.VM_Operation = type { ptr, ptr }
%class.VM_ForceSafepoint = type { %class.VM_EmptyOperation }

@_ZL16safepointALot_op = internal global %class.VM_SafepointALot zeroinitializer, align 8
@_ZL5no_op = internal global %class.VM_ForceSafepoint zeroinitializer, align 8
@_ZN8VMThread17_should_terminateE = hidden global i8 0, align 1
@_ZN8VMThread10_vm_threadE = hidden global ptr null, align 8
@_ZN8VMThread18_next_vm_operationE = hidden global ptr @_ZL5no_op, align 8

; Function Attrs: mustprogress nounwind uwtable
define linkonce_odr hidden noundef zeroext i1 @_ZN8VMThread16should_terminateEv() #1 comdat align 2 {
  %1 = load i8, ptr @_ZN8VMThread17_should_terminateE, align 1
  %2 = trunc i8 %1 to i1
  ret i1 %2
}

; Function Attrs: mustprogress nounwind uwtable
define hidden void @_ZN8VMThread4loopEv(ptr noundef nonnull align 8 dereferenceable(917) %0) #1 align 2 {
  %2 = alloca ptr, align 8
  store ptr %0, ptr %2, align 8
  %3 = load ptr, ptr %2, align 8
  %4 = load ptr, ptr @_ZN8VMThread10_vm_threadE, align 8
  call void @_ZN20SafepointSynchronize4initEP6Thread(ptr noundef %4)
  %5 = load ptr, ptr @_ZN8VMThread10_vm_threadE, align 8
  call void @_ZN12VM_Operation18set_calling_threadEP6Thread(ptr noundef nonnull align 8 dereferenceable(16) @_ZL5no_op, ptr noundef %5)
  %6 = load ptr, ptr @_ZN8VMThread10_vm_threadE, align 8
  call void @_ZN12VM_Operation18set_calling_threadEP6Thread(ptr noundef nonnull align 8 dereferenceable(16) @_ZL16safepointALot_op, ptr noundef %6)
  br label %7

7:                                                ; preds = %13, %1
  %8 = call noundef zeroext i1 @_ZN8VMThread16should_terminateEv()
  br i1 %8, label %9, label %10

9:                                                ; preds = %7
  br label %15

10:                                               ; preds = %7
  call void @_ZN8VMThread18wait_for_operationEv(ptr noundef nonnull align 8 dereferenceable(917) %3)
  %11 = call noundef zeroext i1 @_ZN8VMThread16should_terminateEv()
  br i1 %11, label %12, label %13

12:                                               ; preds = %10
  br label %15

13:                                               ; preds = %10
  %14 = load ptr, ptr @_ZN8VMThread18_next_vm_operationE, align 8
  call void @_ZN8VMThread13inner_executeEP12VM_Operation(ptr noundef nonnull align 8 dereferenceable(917) %3, ptr noundef %14)
  br label %7, !llvm.loop !6

15:                                               ; preds = %12, %9
  ret void
}