; Function Attrs: mustprogress nounwind uwtable
define hidden void @_ZN8VMThread4loopEv(ptr noundef nonnull align 8 dereferenceable(917) %0) local_unnamed_addr #0 align 2 {
  %2 = load ptr, ptr @_ZN8VMThread10_vm_threadE, align 8
  tail call void @_ZN20SafepointSynchronize4initEP6Thread(ptr noundef %2) #13
  %3 = load ptr, ptr @_ZN8VMThread10_vm_threadE, align 8
  tail call void @_ZN12VM_Operation18set_calling_threadEP6Thread(ptr noundef nonnull align 8 dereferenceable(16) @_ZL5no_op, ptr noundef %3) #13
  %4 = load ptr, ptr @_ZN8VMThread10_vm_threadE, align 8
  tail call void @_ZN12VM_Operation18set_calling_threadEP6Thread(ptr noundef nonnull align 8 dereferenceable(16) @_ZL16safepointALot_op, ptr noundef %4) #13
  %5 = load i8, ptr @_ZN8VMThread17_should_terminateE, align 1
  %6 = trunc i8 %5 to i1
  br i1 %6, label %._crit_edge, label %.lr.ph

.lr.ph:                                           ; preds = %1, %9
  tail call void @_ZN8VMThread18wait_for_operationEv(ptr nonnull align 8 poison)
  %7 = load i8, ptr @_ZN8VMThread17_should_terminateE, align 1
  %8 = trunc i8 %7 to i1
  br i1 %8, label %._crit_edge, label %9

9:                                                ; preds = %.lr.ph
  %10 = load ptr, ptr @_ZN8VMThread18_next_vm_operationE, align 8
  tail call void @_ZN8VMThread13inner_executeEP12VM_Operation(ptr noundef nonnull align 8 dereferenceable(917) %0, ptr noundef %10)
  %11 = load i8, ptr @_ZN8VMThread17_should_terminateE, align 1
  %12 = trunc i8 %11 to i1
  br i1 %12, label %._crit_edge, label %.lr.ph, !llvm.loop !8

._crit_edge:                                      ; preds = %9, %.lr.ph, %1
  ret void
}